; Function Attrs: nounwind uwtable
define noalias nonnull ptr @l___private_Lean_Parser_Extension_0__Lean_Parser_throwParserCategoryAlreadyDefined___rarg(ptr noundef %0) #1 {
  %2 = load ptr, ptr @l___private_Lean_Parser_Extension_0__Lean_Parser_throwParserCategoryAlreadyDefined___rarg___closed__1, align 8, !tbaa !9
  %3 = tail call ptr @l_Lean_Name_toString(ptr noundef %0, i8 noundef zeroext 1, ptr noundef %2) #6
  %4 = load ptr, ptr @l___private_Lean_Parser_Extension_0__Lean_Parser_throwParserCategoryAlreadyDefined___rarg___closed__2, align 8, !tbaa !9
  %5 = tail call ptr @lean_string_append(ptr noundef %4, ptr noundef %3) #6
  %6 = ptrtoint ptr %3 to i64
  %7 = and i64 %6, 1
  %.not = icmp eq i64 %7, 0
  br i1 %.not, label %8, label %lean_dec.exit

8:                                                ; preds = %1
  %9 = load i32, ptr %3, align 4, !tbaa !4
  %10 = icmp sgt i32 %9, 1
  br i1 %10, label %11, label %13, !prof !11

11:                                               ; preds = %8
  %12 = add nsw i32 %9, -1
  store i32 %12, ptr %3, align 4, !tbaa !4
  br label %lean_dec.exit

13:                                               ; preds = %8
  %.not.i = icmp eq i32 %9, 0
  br i1 %.not.i, label %lean_dec.exit, label %14

14:                                               ; preds = %13
  tail call void @lean_dec_ref_cold(ptr noundef nonnull %3) #6
  br label %lean_dec.exit

lean_dec.exit:                                    ; preds = %14, %13, %11, %1
  %15 = load ptr, ptr @l___private_Lean_Parser_Extension_0__Lean_Parser_throwParserCategoryAlreadyDefined___rarg___closed__3, align 8, !tbaa !9
  %16 = tail call ptr @lean_string_append(ptr noundef %5, ptr noundef %15) #6
  tail call void @lean_inc_heartbeat() #6
  %17 = tail call noalias ptr @mi_malloc_small(i64 noundef 16) #6
  %18 = icmp eq ptr %17, null
  br i1 %18, label %19, label %lean_alloc_ctor.exit

19:                                               ; preds = %lean_dec.exit
  tail call void @lean_internal_panic_out_of_memory() #7
  unreachable

lean_alloc_ctor.exit:                             ; preds = %lean_dec.exit
  %20 = getelementptr inbounds nuw i8, ptr %17, i64 4
  store i32 1, ptr %17, align 4, !tbaa !4
  store i32 65552, ptr %20, align 4
  %21 = getelementptr inbounds nuw i8, ptr %17, i64 8
  store ptr %16, ptr %21, align 8, !tbaa !9
  ret ptr %17
}